; Function Attrs: nounwind uwtable
define hidden void @png_chunk_warning(ptr noalias noundef %0, ptr noundef %1) local_unnamed_addr #3 {
  %3 = alloca [214 x i8], align 16
  %4 = icmp eq ptr %0, null
  br i1 %4, label %5, label %9

5:                                                ; preds = %2
  %6 = load ptr, ptr @stderr, align 8, !noalias !19
  %7 = tail call i32 (ptr, ptr, ...) @fprintf(ptr noundef %6, ptr noundef nonnull @.str.7, ptr noundef %1) #19
  %8 = load ptr, ptr @stderr, align 8, !noalias !19
  %fputc.i.i = tail call i32 @fputc(i32 10, ptr %8)
  br label %png_warning.exit

9:                                                ; preds = %2
  %10 = getelementptr i8, ptr %0, i64 456
  %.val = load i32, ptr %10, align 8
  br label %11

11:                                               ; preds = %40, %9
  %.0382.i = phi i32 [ 0, %9 ], [ %.1.i, %40 ]
  %.0391.i = phi i32 [ 24, %9 ], [ %14, %40 ]
  %12 = lshr i32 %.val, %.0391.i
  %13 = and i32 %12, 255
  %14 = add nsw i32 %.0391.i, -8
  %15 = add nsw i32 %13, -123
  %or.cond.i = icmp ult i32 %15, -58
  %16 = add nsw i32 %13, -91
  %17 = icmp ult i32 %16, 6
  %18 = select i1 %or.cond.i, i1 true, i1 %17
  br i1 %18, label %19, label %35

19:                                               ; preds = %11
  %20 = sext i32 %.0382.i to i64
  %21 = getelementptr inbounds i8, ptr %3, i64 %20
  store i8 91, ptr %21, align 1
  %22 = lshr i32 %12, 4
  %23 = and i32 %22, 15
  %24 = zext nneg i32 %23 to i64
  %25 = getelementptr inbounds [16 x i8], ptr @png_digit, i64 0, i64 %24
  %26 = load i8, ptr %25, align 1
  %27 = getelementptr i8, ptr %21, i64 1
  store i8 %26, ptr %27, align 1
  %28 = and i32 %12, 15
  %29 = zext nneg i32 %28 to i64
  %30 = getelementptr inbounds [16 x i8], ptr @png_digit, i64 0, i64 %29
  %31 = load i8, ptr %30, align 1
  %32 = getelementptr i8, ptr %21, i64 2
  store i8 %31, ptr %32, align 1
  %33 = add nsw i32 %.0382.i, 4
  %34 = getelementptr i8, ptr %21, i64 3
  store i8 93, ptr %34, align 1
  br label %40

35:                                               ; preds = %11
  %36 = trunc i32 %12 to i8
  %37 = add nsw i32 %.0382.i, 1
  %38 = sext i32 %.0382.i to i64
  %39 = getelementptr inbounds i8, ptr %3, i64 %38
  store i8 %36, ptr %39, align 1
  br label %40

40:                                               ; preds = %35, %19
  %.1.i = phi i32 [ %33, %19 ], [ %37, %35 ]
  %.not10.i = icmp eq i32 %.0391.i, 0
  br i1 %.not10.i, label %41, label %11, !llvm.loop !22

41:                                               ; preds = %40
  %42 = icmp eq ptr %1, null
  %43 = sext i32 %.1.i to i64
  %44 = getelementptr inbounds i8, ptr %3, i64 %43
  br i1 %42, label %58, label %45

45:                                               ; preds = %41
  store i8 58, ptr %44, align 1
  %46 = add i32 %.1.i, 2
  %47 = getelementptr i8, ptr %44, i64 1
  store i8 32, ptr %47, align 1
  %48 = sext i32 %46 to i64
  %49 = add i32 %.1.i, 197
  br label %50

50:                                               ; preds = %53, %45
  %indvars.iv5.i = phi i64 [ %48, %45 ], [ %indvars.iv.next6.i, %53 ]
  %indvars.iv.i = phi i64 [ 0, %45 ], [ %indvars.iv.next.i, %53 ]
  %51 = getelementptr inbounds i8, ptr %1, i64 %indvars.iv.i
  %52 = load i8, ptr %51, align 1
  %.not.i = icmp eq i8 %52, 0
  br i1 %.not.i, label %.critedge.split.loop.exit11.i, label %53

53:                                               ; preds = %50
  %indvars.iv.next.i = add nuw nsw i64 %indvars.iv.i, 1
  %indvars.iv.next6.i = add nsw i64 %indvars.iv5.i, 1
  %54 = getelementptr inbounds i8, ptr %3, i64 %indvars.iv5.i
  store i8 %52, ptr %54, align 1
  %exitcond.not.i = icmp eq i64 %indvars.iv.next.i, 195
  br i1 %exitcond.not.i, label %.critedge.i, label %50, !llvm.loop !23

.critedge.split.loop.exit11.i:                    ; preds = %50
  %55 = trunc nsw i64 %indvars.iv5.i to i32
  br label %.critedge.i

.critedge.i:                                      ; preds = %53, %.critedge.split.loop.exit11.i
  %.2.lcssa.i = phi i32 [ %55, %.critedge.split.loop.exit11.i ], [ %49, %53 ]
  %56 = sext i32 %.2.lcssa.i to i64
  %57 = getelementptr inbounds i8, ptr %3, i64 %56
  br label %58

58:                                               ; preds = %.critedge.i, %41
  %.sink.i = phi ptr [ %57, %.critedge.i ], [ %44, %41 ]
  store i8 0, ptr %.sink.i, align 1
  tail call void @llvm.experimental.noalias.scope.decl(metadata !24)
  %59 = load i8, ptr %3, align 16, !noalias !24
  %60 = icmp eq i8 %59, 35
  br i1 %60, label %.preheader.i, label %.thread21.i

.preheader.i:                                     ; preds = %58, %64
  %indvars.iv.i7 = phi i64 [ %indvars.iv.next.i8, %64 ], [ 1, %58 ]
  %61 = getelementptr inbounds i8, ptr %3, i64 %indvars.iv.i7
  %62 = load i8, ptr %61, align 1, !noalias !24
  %63 = icmp eq i8 %62, 32
  br i1 %63, label %.thread21.loopexit.i, label %64

64:                                               ; preds = %.preheader.i
  %indvars.iv.next.i8 = add nuw nsw i64 %indvars.iv.i7, 1
  %exitcond.not.i9 = icmp eq i64 %indvars.iv.next.i8, 15
  br i1 %exitcond.not.i9, label %.thread21.loopexit.i, label %.preheader.i, !llvm.loop !9

.thread21.loopexit.i:                             ; preds = %64, %.preheader.i
  %.123.ph.i = phi i64 [ 15, %64 ], [ %indvars.iv.i7, %.preheader.i ]
  %65 = and i64 %.123.ph.i, 4294967295
  br label %.thread21.i

.thread21.i:                                      ; preds = %.thread21.loopexit.i, %58
  %.123.i = phi i64 [ 0, %58 ], [ %65, %.thread21.loopexit.i ]
  %66 = getelementptr inbounds i8, ptr %0, i64 232
  %67 = load ptr, ptr %66, align 8, !alias.scope !24
  %.not17.i = icmp eq ptr %67, null
  %68 = getelementptr inbounds i8, ptr %3, i64 %.123.i
  br i1 %.not17.i, label %.split14.i, label %72

.split14.i:                                       ; preds = %.thread21.i
  %69 = load ptr, ptr @stderr, align 8, !noalias !24
  %70 = call i32 (ptr, ptr, ...) @fprintf(ptr noundef %69, ptr noundef nonnull @.str.7, ptr noundef nonnull %68) #19
  %71 = load ptr, ptr @stderr, align 8, !noalias !24
  %fputc.i18.i = call i32 @fputc(i32 10, ptr %71)
  br label %png_warning.exit

72:                                               ; preds = %.thread21.i
  call void %67(ptr noundef nonnull %0, ptr noundef nonnull %68) #17
  br label %png_warning.exit

png_warning.exit:                                 ; preds = %72, %.split14.i, %5
  ret void
}